; Function Attrs: nounwind uwtable
define dso_local range(i32 -1, 1803) i32 @slurm_takeover(i32 noundef %0) local_unnamed_addr #0 {
  %2 = alloca %struct.slurm_msg, align 8
  call void @llvm.lifetime.start.p0(i64 424, ptr nonnull %2) #6
  call void @slurm_msg_t_init(ptr noundef nonnull %2) #6
  %3 = getelementptr inbounds nuw i8, ptr %2, i64 212
  store i16 1012, ptr %3, align 4
  %4 = icmp slt i32 %0, 1
  br i1 %4, label %7, label %5

5:                                                ; preds = %1
  %6 = call fastcc i32 @_send_message_controller(i32 noundef %0, ptr noundef %2)
  br label %7

7:                                                ; preds = %1, %5
  %.0 = phi i32 [ %6, %5 ], [ 1800, %1 ]
  call void @llvm.lifetime.end.p0(i64 424, ptr nonnull %2) #6
  ret i32 %.0
}